; Function Attrs: mustprogress uwtable
define hidden void @_ZN5zxing6qrcode22DecodedBitStreamParser6appendERNSt7__cxx1112basic_stringIcSt11char_traitsIcESaIcEEEPKcmRNS_12ErrorHandlerE(ptr noundef nonnull readnone align 8 captures(none) dereferenceable(32) %0, ptr noundef nonnull align 8 dereferenceable(32) %1, ptr noundef %2, i64 noundef %3, ptr noundef nonnull align 8 dereferenceable(48) %4) local_unnamed_addr #0 align 2 {
  %6 = load ptr, ptr %4, align 8, !tbaa !12
  %7 = getelementptr inbounds nuw i8, ptr %6, i64 16
  %8 = load ptr, ptr %7, align 8
  %9 = tail call noundef i32 %8(ptr noundef nonnull align 8 dereferenceable(48) %4)
  %10 = icmp ne i32 %9, 0
  %11 = icmp eq ptr %2, null
  %or.cond = or i1 %11, %10
  br i1 %or.cond, label %19, label %12

12:                                               ; preds = %5
  %13 = getelementptr inbounds nuw i8, ptr %1, i64 8
  %14 = load i64, ptr %13, align 8, !tbaa !11
  %15 = sub i64 4611686018427387903, %14
  %16 = icmp ult i64 %15, %3
  br i1 %16, label %17, label %_ZNSt7__cxx1112basic_stringIcSt11char_traitsIcESaIcEE6appendEPKcm.exit

17:                                               ; preds = %12
  tail call void @_ZSt20__throw_length_errorPKc(ptr noundef nonnull @.str.11) #15
  unreachable

_ZNSt7__cxx1112basic_stringIcSt11char_traitsIcESaIcEE6appendEPKcm.exit: ; preds = %12
  %18 = tail call noundef nonnull align 8 dereferenceable(32) ptr @_ZNSt7__cxx1112basic_stringIcSt11char_traitsIcESaIcEE9_M_appendEPKcm(ptr noundef nonnull align 8 dereferenceable(32) %1, ptr noundef nonnull %2, i64 noundef %3)
  br label %19

19:                                               ; preds = %5, %_ZNSt7__cxx1112basic_stringIcSt11char_traitsIcESaIcEE6appendEPKcm.exit
  ret void
}